
./bin-lab-ref:     file format elf64-x86-64


Disassembly of section .init:

0000000000400490 <_init>:
  400490:	48 83 ec 08          	sub    $0x8,%rsp
  400494:	48 8b 05 5d 0b 20 00 	mov    0x200b5d(%rip),%rax        # 600ff8 <_DYNAMIC+0x1d0>
  40049b:	48 85 c0             	test   %rax,%rax
  40049e:	74 05                	je     4004a5 <_init+0x15>
  4004a0:	e8 6b 00 00 00       	callq  400510 <exit@plt+0x10>
  4004a5:	48 83 c4 08          	add    $0x8,%rsp
  4004a9:	c3                   	retq   

Disassembly of section .plt:

00000000004004b0 <puts@plt-0x10>:
  4004b0:	ff 35 52 0b 20 00    	pushq  0x200b52(%rip)        # 601008 <_GLOBAL_OFFSET_TABLE_+0x8>
  4004b6:	ff 25 54 0b 20 00    	jmpq   *0x200b54(%rip)        # 601010 <_GLOBAL_OFFSET_TABLE_+0x10>
  4004bc:	0f 1f 40 00          	nopl   0x0(%rax)

00000000004004c0 <puts@plt>:
  4004c0:	ff 25 52 0b 20 00    	jmpq   *0x200b52(%rip)        # 601018 <_GLOBAL_OFFSET_TABLE_+0x18>
  4004c6:	68 00 00 00 00       	pushq  $0x0
  4004cb:	e9 e0 ff ff ff       	jmpq   4004b0 <_init+0x20>

00000000004004d0 <printf@plt>:
  4004d0:	ff 25 4a 0b 20 00    	jmpq   *0x200b4a(%rip)        # 601020 <_GLOBAL_OFFSET_TABLE_+0x20>
  4004d6:	68 01 00 00 00       	pushq  $0x1
  4004db:	e9 d0 ff ff ff       	jmpq   4004b0 <_init+0x20>

00000000004004e0 <__libc_start_main@plt>:
  4004e0:	ff 25 42 0b 20 00    	jmpq   *0x200b42(%rip)        # 601028 <_GLOBAL_OFFSET_TABLE_+0x28>
  4004e6:	68 02 00 00 00       	pushq  $0x2
  4004eb:	e9 c0 ff ff ff       	jmpq   4004b0 <_init+0x20>

00000000004004f0 <__isoc99_scanf@plt>:
  4004f0:	ff 25 3a 0b 20 00    	jmpq   *0x200b3a(%rip)        # 601030 <_GLOBAL_OFFSET_TABLE_+0x30>
  4004f6:	68 03 00 00 00       	pushq  $0x3
  4004fb:	e9 b0 ff ff ff       	jmpq   4004b0 <_init+0x20>

0000000000400500 <exit@plt>:
  400500:	ff 25 32 0b 20 00    	jmpq   *0x200b32(%rip)        # 601038 <_GLOBAL_OFFSET_TABLE_+0x38>
  400506:	68 04 00 00 00       	pushq  $0x4
  40050b:	e9 a0 ff ff ff       	jmpq   4004b0 <_init+0x20>

Disassembly of section .plt.got:

0000000000400510 <.plt.got>:
  400510:	ff 25 e2 0a 20 00    	jmpq   *0x200ae2(%rip)        # 600ff8 <_DYNAMIC+0x1d0>
  400516:	66 90                	xchg   %ax,%ax

Disassembly of section .text:

0000000000400520 <_start>:
  400520:	31 ed                	xor    %ebp,%ebp
  400522:	49 89 d1             	mov    %rdx,%r9
  400525:	5e                   	pop    %rsi
  400526:	48 89 e2             	mov    %rsp,%rdx
  400529:	48 83 e4 f0          	and    $0xfffffffffffffff0,%rsp
  40052d:	50                   	push   %rax
  40052e:	54                   	push   %rsp
  40052f:	49 c7 c0 30 08 40 00 	mov    $0x400830,%r8
  400536:	48 c7 c1 c0 07 40 00 	mov    $0x4007c0,%rcx
  40053d:	48 c7 c7 e6 06 40 00 	mov    $0x4006e6,%rdi
  400544:	e8 97 ff ff ff       	callq  4004e0 <__libc_start_main@plt>
  400549:	f4                   	hlt    
  40054a:	66 0f 1f 44 00 00    	nopw   0x0(%rax,%rax,1)

0000000000400550 <deregister_tm_clones>:
  400550:	b8 4f 10 60 00       	mov    $0x60104f,%eax
  400555:	55                   	push   %rbp
  400556:	48 2d 48 10 60 00    	sub    $0x601048,%rax
  40055c:	48 83 f8 0e          	cmp    $0xe,%rax
  400560:	48 89 e5             	mov    %rsp,%rbp
  400563:	77 02                	ja     400567 <deregister_tm_clones+0x17>
  400565:	5d                   	pop    %rbp
  400566:	c3                   	retq   
  400567:	b8 00 00 00 00       	mov    $0x0,%eax
  40056c:	48 85 c0             	test   %rax,%rax
  40056f:	74 f4                	je     400565 <deregister_tm_clones+0x15>
  400571:	5d                   	pop    %rbp
  400572:	bf 48 10 60 00       	mov    $0x601048,%edi
  400577:	ff e0                	jmpq   *%rax
  400579:	0f 1f 80 00 00 00 00 	nopl   0x0(%rax)

0000000000400580 <register_tm_clones>:
  400580:	b8 48 10 60 00       	mov    $0x601048,%eax
  400585:	55                   	push   %rbp
  400586:	48 2d 48 10 60 00    	sub    $0x601048,%rax
  40058c:	48 c1 f8 03          	sar    $0x3,%rax
  400590:	48 89 e5             	mov    %rsp,%rbp
  400593:	48 89 c2             	mov    %rax,%rdx
  400596:	48 c1 ea 3f          	shr    $0x3f,%rdx
  40059a:	48 01 d0             	add    %rdx,%rax
  40059d:	48 d1 f8             	sar    %rax
  4005a0:	75 02                	jne    4005a4 <register_tm_clones+0x24>
  4005a2:	5d                   	pop    %rbp
  4005a3:	c3                   	retq   
  4005a4:	ba 00 00 00 00       	mov    $0x0,%edx
  4005a9:	48 85 d2             	test   %rdx,%rdx
  4005ac:	74 f4                	je     4005a2 <register_tm_clones+0x22>
  4005ae:	5d                   	pop    %rbp
  4005af:	48 89 c6             	mov    %rax,%rsi
  4005b2:	bf 48 10 60 00       	mov    $0x601048,%edi
  4005b7:	ff e2                	jmpq   *%rdx
  4005b9:	0f 1f 80 00 00 00 00 	nopl   0x0(%rax)

00000000004005c0 <__do_global_dtors_aux>:
  4005c0:	80 3d 7d 0a 20 00 00 	cmpb   $0x0,0x200a7d(%rip)        # 601044 <_edata>
  4005c7:	75 11                	jne    4005da <__do_global_dtors_aux+0x1a>
  4005c9:	55                   	push   %rbp
  4005ca:	48 89 e5             	mov    %rsp,%rbp
  4005cd:	e8 7e ff ff ff       	callq  400550 <deregister_tm_clones>
  4005d2:	5d                   	pop    %rbp
  4005d3:	c6 05 6a 0a 20 00 01 	movb   $0x1,0x200a6a(%rip)        # 601044 <_edata>
  4005da:	f3 c3                	repz retq 
  4005dc:	0f 1f 40 00          	nopl   0x0(%rax)

00000000004005e0 <frame_dummy>:
  4005e0:	48 83 3d 38 08 20 00 	cmpq   $0x0,0x200838(%rip)        # 600e20 <__JCR_END__>
  4005e7:	00 
  4005e8:	74 1e                	je     400608 <frame_dummy+0x28>
  4005ea:	b8 00 00 00 00       	mov    $0x0,%eax
  4005ef:	48 85 c0             	test   %rax,%rax
  4005f2:	74 14                	je     400608 <frame_dummy+0x28>
  4005f4:	55                   	push   %rbp
  4005f5:	bf 20 0e 60 00       	mov    $0x600e20,%edi
  4005fa:	48 89 e5             	mov    %rsp,%rbp
  4005fd:	ff d0                	callq  *%rax
  4005ff:	5d                   	pop    %rbp
  400600:	e9 7b ff ff ff       	jmpq   400580 <register_tm_clones>
  400605:	0f 1f 00             	nopl   (%rax)
  400608:	e9 73 ff ff ff       	jmpq   400580 <register_tm_clones>
  40060d:	0f 1f 00             	nopl   (%rax)

0000000000400610 <f1>:
  400610:	83 ff 1d             	cmp    $0x1d,%edi
  400613:	7f 0c                	jg     400621 <f1+0x11>
  400615:	89 f8                	mov    %edi,%eax
  400617:	c1 e0 04             	shl    $0x4,%eax
  40061a:	8d 04 f8             	lea    (%rax,%rdi,8),%eax
  40061d:	8d 04 78             	lea    (%rax,%rdi,2),%eax
  400620:	c3                   	retq   
  400621:	c1 ff 02             	sar    $0x2,%edi
  400624:	8d 47 11             	lea    0x11(%rdi),%eax
  400627:	c3                   	retq   

0000000000400628 <f2>:
  400628:	89 fa                	mov    %edi,%edx
  40062a:	b8 00 00 00 00       	mov    $0x0,%eax
  40062f:	eb 0b                	jmp    40063c <f2+0x14>
  400631:	f6 c2 01             	test   $0x1,%dl
  400634:	74 03                	je     400639 <f2+0x11>
  400636:	83 c0 02             	add    $0x2,%eax
  400639:	c1 fa 02             	sar    $0x2,%edx
  40063c:	85 d2                	test   %edx,%edx
  40063e:	75 f1                	jne    400631 <f2+0x9>
  400640:	01 f8                	add    %edi,%eax
  400642:	c3                   	retq   

0000000000400643 <f3>:
  400643:	8d 04 bf             	lea    (%rdi,%rdi,4),%eax
  400646:	8d 34 47             	lea    (%rdi,%rax,2),%esi
  400649:	ba 00 00 00 00       	mov    $0x0,%edx
  40064e:	b8 ab 00 00 00       	mov    $0xab,%eax
  400653:	eb 09                	jmp    40065e <f3+0x1b>
  400655:	48 63 ca             	movslq %edx,%rcx
  400658:	48 01 c8             	add    %rcx,%rax
  40065b:	83 c2 01             	add    $0x1,%edx
  40065e:	39 f2                	cmp    %esi,%edx
  400660:	7c f3                	jl     400655 <f3+0x12>
  400662:	f3 c3                	repz retq 

0000000000400664 <f4>:
  400664:	83 ff 0f             	cmp    $0xf,%edi
  400667:	7f 04                	jg     40066d <f4+0x9>
  400669:	8d 47 0f             	lea    0xf(%rdi),%eax
  40066c:	c3                   	retq   
  40066d:	8d 47 f0             	lea    -0x10(%rdi),%eax
  400670:	83 f8 09             	cmp    $0x9,%eax
  400673:	77 04                	ja     400679 <f4+0x15>
  400675:	8d 47 11             	lea    0x11(%rdi),%eax
  400678:	c3                   	retq   
  400679:	b8 ab 00 00 00       	mov    $0xab,%eax
  40067e:	c3                   	retq   

000000000040067f <check>:
  40067f:	b8 02 00 00 00       	mov    $0x2,%eax
  400684:	eb 05                	jmp    40068b <check+0xc>
  400686:	01 f8                	add    %edi,%eax
  400688:	83 ef 01             	sub    $0x1,%edi
  40068b:	85 ff                	test   %edi,%edi
  40068d:	75 f7                	jne    400686 <check+0x7>
  40068f:	f3 c3                	repz retq 

0000000000400691 <count>:
  400691:	eb 02                	jmp    400695 <count+0x4>
  400693:	d1 ff                	sar    %edi
  400695:	85 ff                	test   %edi,%edi
  400697:	75 fa                	jne    400693 <count+0x2>
  400699:	b8 00 00 00 00       	mov    $0x0,%eax
  40069e:	c3                   	retq   

000000000040069f <f5>:
  40069f:	83 ff 05             	cmp    $0x5,%edi
  4006a2:	77 38                	ja     4006dc <f5+0x3d>
  4006a4:	89 f8                	mov    %edi,%eax
  4006a6:	ff 24 c5 50 08 40 00 	jmpq   *0x400850(,%rax,8)
  4006ad:	89 f8                	mov    %edi,%eax
  4006af:	c1 f8 02             	sar    $0x2,%eax
  4006b2:	c3                   	retq   
  4006b3:	8d 04 fd 00 00 00 00 	lea    0x0(,%rdi,8),%eax
  4006ba:	eb 05                	jmp    4006c1 <f5+0x22>
  4006bc:	b8 0a 00 00 00       	mov    $0xa,%eax
  4006c1:	01 f8                	add    %edi,%eax
  4006c3:	c3                   	retq   
  4006c4:	b8 00 00 00 00       	mov    $0x0,%eax
  4006c9:	e8 b1 ff ff ff       	callq  40067f <check>
  4006ce:	f3 c3                	repz retq 
  4006d0:	b8 00 00 00 00       	mov    $0x0,%eax
  4006d5:	e8 b7 ff ff ff       	callq  400691 <count>
  4006da:	f3 c3                	repz retq 
  4006dc:	8d 04 bf             	lea    (%rdi,%rdi,4),%eax
  4006df:	c3                   	retq   
  4006e0:	b8 11 00 00 00       	mov    $0x11,%eax
  4006e5:	c3                   	retq   

00000000004006e6 <main>:
  4006e6:	48 83 ec 18          	sub    $0x18,%rsp
  4006ea:	bf 80 08 40 00       	mov    $0x400880,%edi
  4006ef:	b8 00 00 00 00       	mov    $0x0,%eax
  4006f4:	e8 d7 fd ff ff       	callq  4004d0 <printf@plt>
  4006f9:	48 8d 74 24 0c       	lea    0xc(%rsp),%rsi
  4006fe:	bf e8 08 40 00       	mov    $0x4008e8,%edi
  400703:	b8 00 00 00 00       	mov    $0x0,%eax
  400708:	e8 e3 fd ff ff       	callq  4004f0 <__isoc99_scanf@plt>
  40070d:	8b 7c 24 0c          	mov    0xc(%rsp),%edi
  400711:	8d 47 ff             	lea    -0x1(%rdi),%eax
  400714:	83 f8 31             	cmp    $0x31,%eax
  400717:	76 14                	jbe    40072d <main+0x47>
  400719:	bf b0 08 40 00       	mov    $0x4008b0,%edi
  40071e:	e8 9d fd ff ff       	callq  4004c0 <puts@plt>
  400723:	bf 01 00 00 00       	mov    $0x1,%edi
  400728:	e8 d3 fd ff ff       	callq  400500 <exit@plt>
  40072d:	e8 de fe ff ff       	callq  400610 <f1>
  400732:	89 c6                	mov    %eax,%esi
  400734:	bf eb 08 40 00       	mov    $0x4008eb,%edi
  400739:	b8 00 00 00 00       	mov    $0x0,%eax
  40073e:	e8 8d fd ff ff       	callq  4004d0 <printf@plt>
  400743:	8b 7c 24 0c          	mov    0xc(%rsp),%edi
  400747:	e8 dc fe ff ff       	callq  400628 <f2>
  40074c:	89 c6                	mov    %eax,%esi
  40074e:	bf fc 08 40 00       	mov    $0x4008fc,%edi
  400753:	b8 00 00 00 00       	mov    $0x0,%eax
  400758:	e8 73 fd ff ff       	callq  4004d0 <printf@plt>
  40075d:	8b 7c 24 0c          	mov    0xc(%rsp),%edi
  400761:	e8 dd fe ff ff       	callq  400643 <f3>
  400766:	48 89 c6             	mov    %rax,%rsi
  400769:	bf 0d 09 40 00       	mov    $0x40090d,%edi
  40076e:	b8 00 00 00 00       	mov    $0x0,%eax
  400773:	e8 58 fd ff ff       	callq  4004d0 <printf@plt>
  400778:	8b 7c 24 0c          	mov    0xc(%rsp),%edi
  40077c:	e8 e3 fe ff ff       	callq  400664 <f4>
  400781:	89 c6                	mov    %eax,%esi
  400783:	bf 1f 09 40 00       	mov    $0x40091f,%edi
  400788:	b8 00 00 00 00       	mov    $0x0,%eax
  40078d:	e8 3e fd ff ff       	callq  4004d0 <printf@plt>
  400792:	8b 7c 24 0c          	mov    0xc(%rsp),%edi
  400796:	e8 04 ff ff ff       	callq  40069f <f5>
  40079b:	89 c6                	mov    %eax,%esi
  40079d:	bf 30 09 40 00       	mov    $0x400930,%edi
  4007a2:	b8 00 00 00 00       	mov    $0x0,%eax
  4007a7:	e8 24 fd ff ff       	callq  4004d0 <printf@plt>
  4007ac:	48 83 c4 18          	add    $0x18,%rsp
  4007b0:	c3                   	retq   
  4007b1:	66 2e 0f 1f 84 00 00 	nopw   %cs:0x0(%rax,%rax,1)
  4007b8:	00 00 00 
  4007bb:	0f 1f 44 00 00       	nopl   0x0(%rax,%rax,1)

00000000004007c0 <__libc_csu_init>:
  4007c0:	41 57                	push   %r15
  4007c2:	41 89 ff             	mov    %edi,%r15d
  4007c5:	41 56                	push   %r14
  4007c7:	49 89 f6             	mov    %rsi,%r14
  4007ca:	41 55                	push   %r13
  4007cc:	49 89 d5             	mov    %rdx,%r13
  4007cf:	41 54                	push   %r12
  4007d1:	4c 8d 25 38 06 20 00 	lea    0x200638(%rip),%r12        # 600e10 <__frame_dummy_init_array_entry>
  4007d8:	55                   	push   %rbp
  4007d9:	48 8d 2d 38 06 20 00 	lea    0x200638(%rip),%rbp        # 600e18 <__init_array_end>
  4007e0:	53                   	push   %rbx
  4007e1:	4c 29 e5             	sub    %r12,%rbp
  4007e4:	31 db                	xor    %ebx,%ebx
  4007e6:	48 c1 fd 03          	sar    $0x3,%rbp
  4007ea:	48 83 ec 08          	sub    $0x8,%rsp
  4007ee:	e8 9d fc ff ff       	callq  400490 <_init>
  4007f3:	48 85 ed             	test   %rbp,%rbp
  4007f6:	74 1e                	je     400816 <__libc_csu_init+0x56>
  4007f8:	0f 1f 84 00 00 00 00 	nopl   0x0(%rax,%rax,1)
  4007ff:	00 
  400800:	4c 89 ea             	mov    %r13,%rdx
  400803:	4c 89 f6             	mov    %r14,%rsi
  400806:	44 89 ff             	mov    %r15d,%edi
  400809:	41 ff 14 dc          	callq  *(%r12,%rbx,8)
  40080d:	48 83 c3 01          	add    $0x1,%rbx
  400811:	48 39 eb             	cmp    %rbp,%rbx
  400814:	75 ea                	jne    400800 <__libc_csu_init+0x40>
  400816:	48 83 c4 08          	add    $0x8,%rsp
  40081a:	5b                   	pop    %rbx
  40081b:	5d                   	pop    %rbp
  40081c:	41 5c                	pop    %r12
  40081e:	41 5d                	pop    %r13
  400820:	41 5e                	pop    %r14
  400822:	41 5f                	pop    %r15
  400824:	c3                   	retq   
  400825:	90                   	nop
  400826:	66 2e 0f 1f 84 00 00 	nopw   %cs:0x0(%rax,%rax,1)
  40082d:	00 00 00 

0000000000400830 <__libc_csu_fini>:
  400830:	f3 c3                	repz retq 

Disassembly of section .fini:

0000000000400834 <_fini>:
  400834:	48 83 ec 08          	sub    $0x8,%rsp
  400838:	48 83 c4 08          	add    $0x8,%rsp
  40083c:	c3                   	retq   
